target datalayout = "e-m:e-p270:32:32-p271:32:32-p272:64:64-i64:64-i128:128-f80:128-n8:16:32:64-S128"
target triple = "x86_64-pc-linux-gnu"

%class.rational = type { %class.mpq }
%class.mpq = type { %class.mpz, %class.mpz }
%class.mpz = type { i32, i8, ptr }
%"class.nla::grobner" = type { %"struct.nla::common", %"class.dd::pdd_manager", %"class.dd::solver", ptr, %class.indexed_uint_set, i32, i32, i32, i8, %"class.std::unordered_map.35" }
%"struct.nla::common" = type { ptr, %"class.nla::nex_creator" }
%"class.nla::nex_creator" = type { %class.ptr_vector, %"class.std::unordered_map", %"class.std::unordered_map.2", %class.svector, %"class.nla::nex_creator::mul_factory" }
%class.ptr_vector = type { %class.vector }
%class.vector = type { ptr }
%"class.std::unordered_map" = type { %"class.std::_Hashtable" }
%"class.std::_Hashtable" = type { ptr, i64, %"struct.std::__detail::_Hash_node_base", i64, %"struct.std::__detail::_Prime_rehash_policy", ptr }
%"struct.std::__detail::_Hash_node_base" = type { ptr }
%"struct.std::__detail::_Prime_rehash_policy" = type { float, i64 }
%"class.std::unordered_map.2" = type { %"class.std::_Hashtable.3" }
%"class.std::_Hashtable.3" = type { ptr, i64, %"struct.std::__detail::_Hash_node_base", i64, %"struct.std::__detail::_Prime_rehash_policy", ptr }
%class.svector = type { %class.vector.16 }
%class.vector.16 = type { ptr }
%"class.nla::nex_creator::mul_factory" = type { ptr, %class.rational, %class.vector.17 }
%class.vector.17 = type { ptr }
%"class.dd::pdd_manager" = type { %class.svector.18, %class.vector.20, %class.ptr_hashtable, %class.hashtable, %class.hashtable.23, %class.map, %class.svector, ptr, %class.svector, %class.svector, %class.svector, %class.svector, %class.small_object_allocator, %class.svector, i32, %class.svector, %class.svector, %class.svector.29, i8, i8, i32, i32, %class.svector, %class.svector, %class.rational, %class.rational, i32, %class.rational, %class.svector, i32, %class.svector, %class.svector, %class.rational, %class.rational }
%class.svector.18 = type { %class.vector.19 }
%class.vector.19 = type { ptr }
%class.vector.20 = type { ptr }
%class.ptr_hashtable = type { %class.core_hashtable.base, [4 x i8] }
%class.core_hashtable.base = type <{ ptr, i32, i32, i32 }>
%class.hashtable = type { %class.core_hashtable.base.22, [4 x i8] }
%class.core_hashtable.base.22 = type <{ ptr, i32, i32, i32 }>
%class.hashtable.23 = type { %class.core_hashtable.base.25, [4 x i8] }
%class.core_hashtable.base.25 = type <{ ptr, i32, i32, i32 }>
%class.map = type { %class.table2map }
%class.table2map = type { %class.core_hashtable.27 }
%class.core_hashtable.27 = type <{ ptr, i32, i32, i32, [4 x i8] }>
%class.small_object_allocator = type { [32 x ptr], [32 x ptr], i64 }
%class.svector.29 = type { %class.vector.30 }
%class.vector.30 = type { ptr }
%"class.dd::solver" = type { ptr, ptr, ptr, %"class.dd::solver::stats", %"struct.dd::solver::config", %"class.std::function", %class.ptr_vector.32, %class.ptr_vector.32, %class.ptr_vector.32, %class.vector.34, %class.ptr_vector.32, ptr, i8, i32, %class.svector, %class.svector }
%"class.dd::solver::stats" = type <{ i32, [4 x i8], double, i32, i32, i32, [4 x i8] }>
%"struct.dd::solver::config" = type { i32, i32, i32, i32, i32, i32, i8, i32, i32, i32, i32 }
%"class.std::function" = type { %"class.std::_Function_base", ptr }
%"class.std::_Function_base" = type { %"union.std::_Any_data", ptr }
%"union.std::_Any_data" = type { %"union.std::_Nocopy_types" }
%"union.std::_Nocopy_types" = type { { i64, i64 } }
%class.vector.34 = type { ptr }
%class.ptr_vector.32 = type { %class.vector.33 }
%class.vector.33 = type { ptr }
%class.indexed_uint_set = type { i32, %class.svector, %class.svector }
%"class.std::unordered_map.35" = type { %"class.std::_Hashtable.36" }
%"class.std::_Hashtable.36" = type { ptr, i64, %"struct.std::__detail::_Hash_node_base", i64, %"struct.std::__detail::_Prime_rehash_policy", ptr }

; Function Attrs: mustprogress nounwind uwtable
define linkonce_odr hidden noundef i32 @_ZNK6vectorIPN2dd6solver8equationELb0EjE4sizeEv(ptr noundef nonnull align 8 dereferenceable(8) %0) #4 comdat align 2 {
  %2 = alloca i32, align 4
  %3 = alloca ptr, align 8
  store ptr %0, ptr %3, align 8, !tbaa !249
  %4 = load ptr, ptr %3, align 8
  %5 = getelementptr inbounds nuw %class.vector.33, ptr %4, i32 0, i32 0
  %6 = load ptr, ptr %5, align 8, !tbaa !251
  %7 = icmp eq ptr %6, null
  br i1 %7, label %8, label %9

8:                                                ; preds = %1
  store i32 0, ptr %2, align 4
  br label %14

9:                                                ; preds = %1
  %10 = getelementptr inbounds nuw %class.vector.33, ptr %4, i32 0, i32 0
  %11 = load ptr, ptr %10, align 8, !tbaa !251
  %12 = getelementptr inbounds i32, ptr %11, i64 -1
  %13 = load i32, ptr %12, align 4, !tbaa !8
  store i32 %13, ptr %2, align 4
  br label %14

14:                                               ; preds = %9, %8
  %15 = load i32, ptr %2, align 4
  ret i32 %15
}

; Function Attrs: mustprogress nounwind uwtable
define linkonce_odr hidden noundef i32 @_ZNK2dd6solver29number_of_conflicts_to_reportEv(ptr noundef nonnull align 8 dereferenceable(208) %0) #4 comdat align 2 {
  %2 = alloca ptr, align 8
  store ptr %0, ptr %2, align 8, !tbaa !259
  %3 = load ptr, ptr %2, align 8
  %4 = getelementptr inbounds nuw %"class.dd::solver", ptr %3, i32 0, i32 4
  %5 = getelementptr inbounds nuw %"struct.dd::solver::config", ptr %4, i32 0, i32 10
  %6 = load i32, ptr %5, align 8, !tbaa !261
  ret i32 %6
}

; Function Attrs: mustprogress nounwind uwtable
define linkonce_odr hidden noundef ptr @_ZNK6vectorIPN2dd6solver8equationELb0EjE3endEv(ptr noundef nonnull align 8 dereferenceable(8) %0) #4 comdat align 2 {
  %2 = alloca ptr, align 8
  store ptr %0, ptr %2, align 8, !tbaa !249
  %3 = load ptr, ptr %2, align 8
  %4 = getelementptr inbounds nuw %class.vector.33, ptr %3, i32 0, i32 0
  %5 = load ptr, ptr %4, align 8, !tbaa !251
  %6 = call noundef i32 @_ZNK6vectorIPN2dd6solver8equationELb0EjE4sizeEv(ptr noundef nonnull align 8 dereferenceable(8) %3)
  %7 = zext i32 %6 to i64
  %8 = getelementptr inbounds nuw ptr, ptr %5, i64 %7
  ret ptr %8
}

; Function Attrs: mustprogress nounwind uwtable
define linkonce_odr hidden noundef ptr @_ZNK6vectorIPN2dd6solver8equationELb0EjE5beginEv(ptr noundef nonnull align 8 dereferenceable(8) %0) #4 comdat align 2 {
  %2 = alloca ptr, align 8
  store ptr %0, ptr %2, align 8, !tbaa !249
  %3 = load ptr, ptr %2, align 8
  %4 = getelementptr inbounds nuw %class.vector.33, ptr %3, i32 0, i32 0
  %5 = load ptr, ptr %4, align 8, !tbaa !251
  ret ptr %5
}

; Function Attrs: mustprogress uwtable
define hidden noundef zeroext i1 @_ZN3nla7grobner23propagate_factorizationEv(ptr noundef nonnull align 8 dereferenceable(1448) %0) #6 align 2 {
  %2 = alloca i1, align 1
  %3 = alloca ptr, align 8
  %4 = alloca i32, align 4
  %5 = alloca ptr, align 8
  %6 = alloca ptr, align 8
  %7 = alloca ptr, align 8
  %8 = alloca i32, align 4
  %9 = alloca ptr, align 8
  store ptr %0, ptr %3, align 8, !tbaa !16
  %10 = load ptr, ptr %3, align 8
  call void @llvm.lifetime.start.p0(i64 4, ptr %4) #3
  store i32 0, ptr %4, align 4, !tbaa !8
  call void @llvm.lifetime.start.p0(i64 8, ptr %5) #3
  %11 = getelementptr inbounds nuw %"class.nla::grobner", ptr %10, i32 0, i32 2
  %12 = call noundef nonnull align 8 dereferenceable(8) ptr @_ZN2dd6solver9equationsEv(ptr noundef nonnull align 8 dereferenceable(208) %11)
  store ptr %12, ptr %5, align 8, !tbaa !228
  call void @llvm.lifetime.start.p0(i64 8, ptr %6) #3
  %13 = load ptr, ptr %5, align 8, !tbaa !228
  %14 = call noundef ptr @_ZNK6vectorIPN2dd6solver8equationELb0EjE5beginEv(ptr noundef nonnull align 8 dereferenceable(8) %13)
  store ptr %14, ptr %6, align 8, !tbaa !230
  call void @llvm.lifetime.start.p0(i64 8, ptr %7) #3
  %15 = load ptr, ptr %5, align 8, !tbaa !228
  %16 = call noundef ptr @_ZNK6vectorIPN2dd6solver8equationELb0EjE3endEv(ptr noundef nonnull align 8 dereferenceable(8) %15)
  store ptr %16, ptr %7, align 8, !tbaa !230
  br label %17

17:                                               ; preds = %38, %1
  %18 = load ptr, ptr %6, align 8, !tbaa !230
  %19 = load ptr, ptr %7, align 8, !tbaa !230
  %20 = icmp ne ptr %18, %19
  br i1 %20, label %22, label %21

21:                                               ; preds = %17
  store i32 2, ptr %8, align 4
  br label %41

22:                                               ; preds = %17
  call void @llvm.lifetime.start.p0(i64 8, ptr %9) #3
  %23 = load ptr, ptr %6, align 8, !tbaa !230
  %24 = load ptr, ptr %23, align 8, !tbaa !231
  store ptr %24, ptr %9, align 8, !tbaa !231
  %25 = load ptr, ptr %9, align 8, !tbaa !231
  %26 = call noundef zeroext i1 @_ZN3nla7grobner23propagate_factorizationERKN2dd6solver8equationE(ptr noundef nonnull align 8 dereferenceable(1448) %10, ptr noundef nonnull align 8 dereferenceable(32) %25)
  br i1 %26, label %27, label %34

27:                                               ; preds = %22
  %28 = load i32, ptr %4, align 4, !tbaa !8
  %29 = add i32 %28, 1
  store i32 %29, ptr %4, align 4, !tbaa !8
  %30 = getelementptr inbounds nuw %"class.nla::grobner", ptr %10, i32 0, i32 2
  %31 = call noundef i32 @_ZNK2dd6solver29number_of_conflicts_to_reportEv(ptr noundef nonnull align 8 dereferenceable(208) %30)
  %32 = icmp uge i32 %29, %31
  br i1 %32, label %33, label %34

33:                                               ; preds = %27
  store i1 true, ptr %2, align 1
  store i32 1, ptr %8, align 4
  br label %35

34:                                               ; preds = %27, %22
  store i32 0, ptr %8, align 4
  br label %35

35:                                               ; preds = %34, %33
  call void @llvm.lifetime.end.p0(i64 8, ptr %9) #3
  %36 = load i32, ptr %8, align 4
  switch i32 %36, label %41 [
    i32 0, label %37
  ]

37:                                               ; preds = %35
  br label %38

38:                                               ; preds = %37
  %39 = load ptr, ptr %6, align 8, !tbaa !230
  %40 = getelementptr inbounds nuw ptr, ptr %39, i32 1
  store ptr %40, ptr %6, align 8, !tbaa !230
  br label %17

41:                                               ; preds = %35, %21
  call void @llvm.lifetime.end.p0(i64 8, ptr %7) #3
  call void @llvm.lifetime.end.p0(i64 8, ptr %6) #3
  call void @llvm.lifetime.end.p0(i64 8, ptr %5) #3
  %42 = load i32, ptr %8, align 4
  switch i32 %42, label %46 [
    i32 2, label %43
  ]

43:                                               ; preds = %41
  %44 = load i32, ptr %4, align 4, !tbaa !8
  %45 = icmp ugt i32 %44, 0
  store i1 %45, ptr %2, align 1
  store i32 1, ptr %8, align 4
  br label %46

46:                                               ; preds = %43, %41
  call void @llvm.lifetime.end.p0(i64 4, ptr %4) #3
  %47 = load i1, ptr %2, align 1
  ret i1 %47
}