; Function Attrs: mustprogress uwtable
define hidden noundef zeroext i1 @_ZN3nla7grobner23propagate_factorizationEv(ptr noundef nonnull align 8 dereferenceable(1448) %0) local_unnamed_addr #4 align 2 {
  %2 = getelementptr inbounds nuw i8, ptr %0, i64 1136
  %3 = tail call noundef nonnull align 8 dereferenceable(8) ptr @_ZN2dd6solver9equationsEv(ptr noundef nonnull align 8 dereferenceable(208) %2)
  %4 = load ptr, ptr %3, align 8, !tbaa !210
  %5 = icmp eq ptr %4, null
  br i1 %5, label %._crit_edge, label %_ZNK6vectorIPN2dd6solver8equationELb0EjE3endEv.exit

_ZNK6vectorIPN2dd6solver8equationELb0EjE3endEv.exit: ; preds = %1
  %6 = getelementptr inbounds i8, ptr %4, i64 -4
  %7 = load i32, ptr %6, align 4, !tbaa !184
  %8 = zext i32 %7 to i64
  %9 = getelementptr inbounds nuw ptr, ptr %4, i64 %8
  %.not26.not = icmp eq i32 %7, 0
  br i1 %.not26.not, label %._crit_edge, label %.lr.ph

.lr.ph:                                           ; preds = %_ZNK6vectorIPN2dd6solver8equationELb0EjE3endEv.exit
  %10 = getelementptr inbounds nuw i8, ptr %0, i64 1232
  br label %11

11:                                               ; preds = %.lr.ph, %.thread
  %.01528 = phi i32 [ 0, %.lr.ph ], [ %.31825, %.thread ]
  %.01927 = phi ptr [ %4, %.lr.ph ], [ %17, %.thread ]
  %12 = load ptr, ptr %.01927, align 8, !tbaa !211
  %13 = tail call noundef zeroext i1 @_ZN3nla7grobner23propagate_factorizationERKN2dd6solver8equationE(ptr noundef nonnull align 8 dereferenceable(1448) %0, ptr noundef nonnull align 8 dereferenceable(32) %12)
  br i1 %13, label %14, label %.thread

14:                                               ; preds = %11
  %15 = add i32 %.01528, 1
  %16 = load i32, ptr %10, align 8, !tbaa !212
  %.not22 = icmp ult i32 %15, %16
  br i1 %.not22, label %.thread, label %._crit_edge.loopexit

.thread:                                          ; preds = %11, %14
  %.31825 = phi i32 [ %15, %14 ], [ %.01528, %11 ]
  %17 = getelementptr inbounds nuw i8, ptr %.01927, i64 8
  %.not.not = icmp eq ptr %17, %9
  br i1 %.not.not, label %._crit_edge.loopexit, label %11

._crit_edge.loopexit:                             ; preds = %.thread, %14
  %.not.lcssa.ph = phi i1 [ true, %14 ], [ false, %.thread ]
  %.116.ph = phi i32 [ %15, %14 ], [ %.31825, %.thread ]
  %18 = icmp ne i32 %.116.ph, 0
  %19 = select i1 %.not.lcssa.ph, i1 true, i1 %18
  br label %._crit_edge

._crit_edge:                                      ; preds = %1, %._crit_edge.loopexit, %_ZNK6vectorIPN2dd6solver8equationELb0EjE3endEv.exit
  %.not.lcssa = phi i1 [ false, %_ZNK6vectorIPN2dd6solver8equationELb0EjE3endEv.exit ], [ %19, %._crit_edge.loopexit ], [ false, %1 ]
  ret i1 %.not.lcssa
}